target datalayout = "e-m:e-p270:32:32-p271:32:32-p272:64:64-i64:64-i128:128-f80:128-n8:16:32:64-S128"
target triple = "x86_64-pc-linux-gnu"

%struct.AVFilterContext = type { ptr, ptr, ptr, ptr, ptr, i32, ptr, ptr, i32, ptr, ptr, i32, i32, ptr, ptr, ptr, ptr, i32, ptr, i32, i32 }
%struct.DeflickerContext = type { ptr, i32, i32, i32, i32, i32, i32, [4 x i32], [4 x i32], ptr, [129 x float], [129 x float], %struct.FFBufQueue, i32, ptr, ptr, ptr }
%struct.FFBufQueue = type { [129 x ptr], i16, i16 }

; Function Attrs: nounwind uwtable
define internal void @get_qm_factor(ptr noundef %0, ptr noundef %1) #1 {
  %3 = alloca ptr, align 8
  %4 = alloca ptr, align 8
  %5 = alloca ptr, align 8
  %6 = alloca i32, align 4
  store ptr %0, ptr %3, align 8, !tbaa !4
  store ptr %1, ptr %4, align 8, !tbaa !93
  call void @llvm.lifetime.start.p0(i64 8, ptr %5) #13
  %7 = load ptr, ptr %3, align 8, !tbaa !4
  %8 = getelementptr inbounds nuw %struct.AVFilterContext, ptr %7, i32 0, i32 9
  %9 = load ptr, ptr %8, align 8, !tbaa !9
  store ptr %9, ptr %5, align 8, !tbaa !22
  call void @llvm.lifetime.start.p0(i64 4, ptr %6) #13
  %10 = load ptr, ptr %4, align 8, !tbaa !93
  store float 0.000000e+00, ptr %10, align 4, !tbaa !46
  store i32 0, ptr %6, align 4, !tbaa !54
  br label %11

11:                                               ; preds = %33, %2
  %12 = load i32, ptr %6, align 4, !tbaa !54
  %13 = load ptr, ptr %5, align 8, !tbaa !22
  %14 = getelementptr inbounds nuw %struct.DeflickerContext, ptr %13, i32 0, i32 1
  %15 = load i32, ptr %14, align 8, !tbaa !42
  %16 = icmp slt i32 %12, %15
  br i1 %16, label %17, label %36

17:                                               ; preds = %11
  %18 = load ptr, ptr %5, align 8, !tbaa !22
  %19 = getelementptr inbounds nuw %struct.DeflickerContext, ptr %18, i32 0, i32 10
  %20 = load i32, ptr %6, align 4, !tbaa !54
  %21 = sext i32 %20 to i64
  %22 = getelementptr inbounds [129 x float], ptr %19, i64 0, i64 %21
  %23 = load float, ptr %22, align 4, !tbaa !46
  %24 = load ptr, ptr %5, align 8, !tbaa !22
  %25 = getelementptr inbounds nuw %struct.DeflickerContext, ptr %24, i32 0, i32 10
  %26 = load i32, ptr %6, align 4, !tbaa !54
  %27 = sext i32 %26 to i64
  %28 = getelementptr inbounds [129 x float], ptr %25, i64 0, i64 %27
  %29 = load float, ptr %28, align 4, !tbaa !46
  %30 = load ptr, ptr %4, align 8, !tbaa !93
  %31 = load float, ptr %30, align 4, !tbaa !46
  %32 = call nsz float @llvm.fmuladd.f32(float %23, float %29, float %31)
  store float %32, ptr %30, align 4, !tbaa !46
  br label %33

33:                                               ; preds = %17
  %34 = load i32, ptr %6, align 4, !tbaa !54
  %35 = add nsw i32 %34, 1
  store i32 %35, ptr %6, align 4, !tbaa !54
  br label %11, !llvm.loop !104

36:                                               ; preds = %11
  %37 = load ptr, ptr %5, align 8, !tbaa !22
  %38 = getelementptr inbounds nuw %struct.DeflickerContext, ptr %37, i32 0, i32 1
  %39 = load i32, ptr %38, align 8, !tbaa !42
  %40 = sitofp i32 %39 to float
  %41 = load ptr, ptr %4, align 8, !tbaa !93
  %42 = load float, ptr %41, align 4, !tbaa !46
  %43 = fdiv nsz float %42, %40
  store float %43, ptr %41, align 4, !tbaa !46
  %44 = load ptr, ptr %4, align 8, !tbaa !93
  %45 = load float, ptr %44, align 4, !tbaa !46
  %46 = call nsz float @llvm.sqrt.f32(float %45)
  %47 = load ptr, ptr %4, align 8, !tbaa !93
  store float %46, ptr %47, align 4, !tbaa !46
  %48 = load ptr, ptr %5, align 8, !tbaa !22
  %49 = getelementptr inbounds nuw %struct.DeflickerContext, ptr %48, i32 0, i32 10
  %50 = getelementptr inbounds [129 x float], ptr %49, i64 0, i64 0
  %51 = load float, ptr %50, align 8, !tbaa !46
  %52 = load ptr, ptr %4, align 8, !tbaa !93
  %53 = load float, ptr %52, align 4, !tbaa !46
  %54 = fdiv nsz float %53, %51
  store float %54, ptr %52, align 4, !tbaa !46
  call void @llvm.lifetime.end.p0(i64 4, ptr %6) #13
  call void @llvm.lifetime.end.p0(i64 8, ptr %5) #13
  ret void
}